target datalayout = "e-m:e-p270:32:32-p271:32:32-p272:64:64-i64:64-i128:128-f80:128-n8:16:32:64-S128"
target triple = "x86_64-pc-linux-gnu"

%"class.std::__shared_count" = type { ptr }
%"class.std::__shared_ptr.78" = type { ptr, %"class.std::__shared_count" }
%"class.std::_Sp_counted_base" = type { ptr, i32, i32 }
%"struct.std::__detail::_Hash_node_value_base" = type { %"struct.__gnu_cxx::__aligned_buffer.346" }
%"struct.__gnu_cxx::__aligned_buffer.346" = type { %"union.std::aligned_storage<16, 8>::type" }
%"union.std::aligned_storage<16, 8>::type" = type { [16 x i8] }
%"struct.std::_Hashtable<std::shared_ptr<open3d::geometry::(anonymous namespace)::BallPivotingEdge>, std::shared_ptr<open3d::geometry::(anonymous namespace)::BallPivotingEdge>, std::allocator<std::shared_ptr<open3d::geometry::(anonymous namespace)::BallPivotingEdge>>, std::__detail::_Identity, std::equal_to<std::shared_ptr<open3d::geometry::(anonymous namespace)::BallPivotingEdge>>, std::hash<std::shared_ptr<open3d::geometry::(anonymous namespace)::BallPivotingEdge>>, std::__detail::_Mod_range_hashing, std::__detail::_Default_ranged_hash, std::__detail::_Prime_rehash_policy, std::__detail::_Hashtable_traits<false, true, true>>::_Scoped_node" = type { ptr, ptr }

@__libc_single_threaded = external global i8, align 1

; Function Attrs: alwaysinline mustprogress nounwind ssp uwtable
define linkonce_odr noundef i32 @_ZN9__gnu_cxx18__exchange_and_addEPVii(ptr noundef %0, i32 noundef %1) #9 comdat {
  %3 = alloca ptr, align 8
  %4 = alloca i32, align 4
  %5 = alloca i32, align 4
  %6 = alloca i32, align 4
  store ptr %0, ptr %3, align 8, !tbaa !326
  store i32 %1, ptr %4, align 4, !tbaa !97
  %7 = load ptr, ptr %3, align 8, !tbaa !326
  %8 = load i32, ptr %4, align 4, !tbaa !97
  store i32 %8, ptr %5, align 4, !tbaa !97
  %9 = load i32, ptr %5, align 4
  %10 = atomicrmw volatile add ptr %7, i32 %9 acq_rel, align 4
  store i32 %10, ptr %6, align 4
  %11 = load i32, ptr %6, align 4, !tbaa !97
  ret i32 %11
}

; Function Attrs: alwaysinline mustprogress nounwind ssp uwtable
define linkonce_odr noundef i32 @_ZN9__gnu_cxx25__exchange_and_add_singleEPii(ptr noundef %0, i32 noundef %1) #9 comdat {
  %3 = alloca ptr, align 8
  %4 = alloca i32, align 4
  %5 = alloca i32, align 4
  store ptr %0, ptr %3, align 8, !tbaa !326
  store i32 %1, ptr %4, align 4, !tbaa !97
  call void @llvm.lifetime.start.p0(i64 4, ptr %5) #30
  %6 = load ptr, ptr %3, align 8, !tbaa !326
  %7 = load i32, ptr %6, align 4, !tbaa !97
  store i32 %7, ptr %5, align 4, !tbaa !97
  %8 = load i32, ptr %4, align 4, !tbaa !97
  %9 = load ptr, ptr %3, align 8, !tbaa !326
  %10 = load i32, ptr %9, align 4, !tbaa !97
  %11 = add nsw i32 %10, %8
  store i32 %11, ptr %9, align 4, !tbaa !97
  %12 = load i32, ptr %5, align 4, !tbaa !97
  call void @llvm.lifetime.end.p0(i64 4, ptr %5) #30
  ret i32 %12
}

; Function Attrs: alwaysinline mustprogress nounwind ssp uwtable
define linkonce_odr noundef zeroext i1 @_ZN9__gnu_cxx20__is_single_threadedEv() #9 comdat {
  %1 = load i8, ptr @__libc_single_threaded, align 1, !tbaa !217
  %2 = icmp ne i8 %1, 0
  ret i1 %2
}

; Function Attrs: alwaysinline mustprogress ssp uwtable
define linkonce_odr noundef i32 @_ZN9__gnu_cxx27__exchange_and_add_dispatchEPii(ptr noundef %0, i32 noundef %1) #11 comdat {
  %3 = alloca i32, align 4
  %4 = alloca ptr, align 8
  %5 = alloca i32, align 4
  store ptr %0, ptr %4, align 8, !tbaa !326
  store i32 %1, ptr %5, align 4, !tbaa !97
  %6 = call noundef zeroext i1 @_ZN9__gnu_cxx20__is_single_threadedEv() #30
  br i1 %6, label %7, label %11

7:                                                ; preds = %2
  %8 = load ptr, ptr %4, align 8, !tbaa !326
  %9 = load i32, ptr %5, align 4, !tbaa !97
  %10 = call noundef i32 @_ZN9__gnu_cxx25__exchange_and_add_singleEPii(ptr noundef %8, i32 noundef %9)
  store i32 %10, ptr %3, align 4
  br label %15

11:                                               ; preds = %2
  %12 = load ptr, ptr %4, align 8, !tbaa !326
  %13 = load i32, ptr %5, align 4, !tbaa !97
  %14 = call noundef i32 @_ZN9__gnu_cxx18__exchange_and_addEPVii(ptr noundef %12, i32 noundef %13)
  store i32 %14, ptr %3, align 4
  br label %15

15:                                               ; preds = %11, %7
  %16 = load i32, ptr %3, align 4
  ret i32 %16
}

; Function Attrs: inlinehint mustprogress nounwind ssp uwtable
define linkonce_odr void @_ZNSt16_Sp_counted_baseILN9__gnu_cxx12_Lock_policyE2EE10_M_releaseEv(ptr noundef nonnull align 8 dereferenceable(16) %0) #16 comdat align 2 personality ptr @__gxx_personality_v0 {
  %2 = alloca ptr, align 8
  %3 = alloca i8, align 1
  %4 = alloca i8, align 1
  %5 = alloca i8, align 1
  %6 = alloca i32, align 4
  %7 = alloca i32, align 4
  %8 = alloca i64, align 8
  %9 = alloca ptr, align 8
  %10 = alloca i64, align 8
  %11 = alloca i32, align 4
  store ptr %0, ptr %2, align 8, !tbaa !173
  %12 = load ptr, ptr %2, align 8
  call void @llvm.lifetime.start.p0(i64 1, ptr %3) #30
  store i8 1, ptr %3, align 1, !tbaa !94
  call void @llvm.lifetime.start.p0(i64 1, ptr %4) #30
  store i8 1, ptr %4, align 1, !tbaa !94
  call void @llvm.lifetime.start.p0(i64 1, ptr %5) #30
  store i8 1, ptr %5, align 1, !tbaa !94
  call void @llvm.lifetime.start.p0(i64 4, ptr %6) #30
  store i32 32, ptr %6, align 4, !tbaa !97
  call void @llvm.lifetime.start.p0(i64 4, ptr %7) #30
  store i32 32, ptr %7, align 4, !tbaa !97
  call void @llvm.lifetime.start.p0(i64 8, ptr %8) #30
  store i64 4294967297, ptr %8, align 8, !tbaa !322
  call void @llvm.lifetime.start.p0(i64 8, ptr %9) #30
  %13 = getelementptr inbounds nuw %"class.std::_Sp_counted_base", ptr %12, i32 0, i32 1
  store ptr %13, ptr %9, align 8, !tbaa !324
  %14 = load ptr, ptr %9, align 8, !tbaa !324
  %15 = load atomic i64, ptr %14 acquire, align 8
  store i64 %15, ptr %10, align 8
  %16 = load i64, ptr %10, align 8, !tbaa !322
  %17 = icmp eq i64 %16, 4294967297
  br i1 %17, label %18, label %27

18:                                               ; preds = %1
  %19 = getelementptr inbounds nuw %"class.std::_Sp_counted_base", ptr %12, i32 0, i32 1
  store i32 0, ptr %19, align 8, !tbaa !174
  %20 = getelementptr inbounds nuw %"class.std::_Sp_counted_base", ptr %12, i32 0, i32 2
  store i32 0, ptr %20, align 4, !tbaa !176
  %21 = load ptr, ptr %12, align 8, !tbaa !25
  %22 = getelementptr inbounds ptr, ptr %21, i64 2
  %23 = load ptr, ptr %22, align 8
  call void %23(ptr noundef nonnull align 8 dereferenceable(16) %12) #30
  %24 = load ptr, ptr %12, align 8, !tbaa !25
  %25 = getelementptr inbounds ptr, ptr %24, i64 3
  %26 = load ptr, ptr %25, align 8
  call void %26(ptr noundef nonnull align 8 dereferenceable(16) %12) #30
  store i32 1, ptr %11, align 4
  br label %35

27:                                               ; preds = %1
  %28 = getelementptr inbounds nuw %"class.std::_Sp_counted_base", ptr %12, i32 0, i32 1
  %29 = invoke noundef i32 @_ZN9__gnu_cxx27__exchange_and_add_dispatchEPii(ptr noundef %28, i32 noundef -1)
          to label %30 unwind label %41

30:                                               ; preds = %27
  %31 = icmp eq i32 %29, 1
  %32 = call i1 @llvm.expect.i1(i1 %31, i1 false)
  br i1 %32, label %33, label %34

33:                                               ; preds = %30
  call void @_ZNSt16_Sp_counted_baseILN9__gnu_cxx12_Lock_policyE2EE24_M_release_last_use_coldEv(ptr noundef nonnull align 8 dereferenceable(16) %12) #30
  store i32 1, ptr %11, align 4
  br label %35

34:                                               ; preds = %30
  store i32 0, ptr %11, align 4
  br label %35

35:                                               ; preds = %34, %33, %18
  call void @llvm.lifetime.end.p0(i64 8, ptr %9) #30
  call void @llvm.lifetime.end.p0(i64 8, ptr %8) #30
  call void @llvm.lifetime.end.p0(i64 4, ptr %7) #30
  call void @llvm.lifetime.end.p0(i64 4, ptr %6) #30
  %36 = load i32, ptr %11, align 4
  switch i32 %36, label %38 [
    i32 0, label %37
  ]

37:                                               ; preds = %35
  store i32 0, ptr %11, align 4
  br label %38

38:                                               ; preds = %37, %35
  call void @llvm.lifetime.end.p0(i64 1, ptr %5) #30
  call void @llvm.lifetime.end.p0(i64 1, ptr %4) #30
  call void @llvm.lifetime.end.p0(i64 1, ptr %3) #30
  %39 = load i32, ptr %11, align 4
  switch i32 %39, label %44 [
    i32 0, label %40
    i32 1, label %40
  ]

40:                                               ; preds = %38, %38
  ret void

41:                                               ; preds = %27
  %42 = landingpad { ptr, i32 }
          catch ptr null
  %43 = extractvalue { ptr, i32 } %42, 0
  call void @__clang_call_terminate(ptr %43) #34
  unreachable

44:                                               ; preds = %38
  unreachable
}

; Function Attrs: mustprogress nounwind ssp uwtable
define linkonce_odr void @_ZNSt14__shared_countILN9__gnu_cxx12_Lock_policyE2EED2Ev(ptr noundef nonnull align 8 dereferenceable(8) %0) unnamed_addr #1 comdat align 2 {
  %2 = alloca ptr, align 8
  store ptr %0, ptr %2, align 8, !tbaa !150
  %3 = load ptr, ptr %2, align 8
  %4 = getelementptr inbounds nuw %"class.std::__shared_count", ptr %3, i32 0, i32 0
  %5 = load ptr, ptr %4, align 8, !tbaa !152
  %6 = icmp ne ptr %5, null
  br i1 %6, label %7, label %10

7:                                                ; preds = %1
  %8 = getelementptr inbounds nuw %"class.std::__shared_count", ptr %3, i32 0, i32 0
  %9 = load ptr, ptr %8, align 8, !tbaa !152
  call void @_ZNSt16_Sp_counted_baseILN9__gnu_cxx12_Lock_policyE2EE10_M_releaseEv(ptr noundef nonnull align 8 dereferenceable(16) %9) #30
  br label %10

10:                                               ; preds = %7, %1
  ret void
}

; Function Attrs: mustprogress nounwind ssp uwtable
define internal void @_ZNSt15__new_allocatorINSt8__detail10_Hash_nodeISt10shared_ptrIN6open3d8geometry12_GLOBAL__N_116BallPivotingEdgeEELb0EEEE10deallocateEPS8_m(ptr noundef nonnull align 1 dereferenceable(1) %0, ptr noundef %1, i64 noundef %2) #1 align 2 {
  %4 = alloca ptr, align 8
  %5 = alloca ptr, align 8
  %6 = alloca i64, align 8
  store ptr %0, ptr %4, align 8, !tbaa !412
  store ptr %1, ptr %5, align 8, !tbaa !1490
  store i64 %2, ptr %6, align 8, !tbaa !60
  %7 = load ptr, ptr %5, align 8, !tbaa !1490
  %8 = load i64, ptr %6, align 8, !tbaa !60
  %9 = mul i64 %8, 24
  call void @_ZdlPvm(ptr noundef %7, i64 noundef %9) #32
  ret void
}

; Function Attrs: mustprogress nounwind ssp uwtable
define internal void @_ZNSt12__shared_ptrIN6open3d8geometry12_GLOBAL__N_116BallPivotingEdgeELN9__gnu_cxx12_Lock_policyE2EED2Ev(ptr noundef nonnull align 8 dereferenceable(16) %0) unnamed_addr #1 align 2 {
  %2 = alloca ptr, align 8
  store ptr %0, ptr %2, align 8, !tbaa !1124
  %3 = load ptr, ptr %2, align 8
  %4 = getelementptr inbounds nuw %"class.std::__shared_ptr.78", ptr %3, i32 0, i32 1
  call void @_ZNSt14__shared_countILN9__gnu_cxx12_Lock_policyE2EED2Ev(ptr noundef nonnull align 8 dereferenceable(8) %4) #30
  ret void
}

; Function Attrs: mustprogress nounwind ssp uwtable
define internal noundef ptr @_ZN9__gnu_cxx16__aligned_bufferISt10shared_ptrIN6open3d8geometry12_GLOBAL__N_116BallPivotingEdgeEEE7_M_addrEv(ptr noundef nonnull align 8 dereferenceable(16) %0) #1 align 2 {
  %2 = alloca ptr, align 8
  store ptr %0, ptr %2, align 8, !tbaa !1493
  %3 = load ptr, ptr %2, align 8
  %4 = getelementptr inbounds nuw %"struct.__gnu_cxx::__aligned_buffer.346", ptr %3, i32 0, i32 0
  ret ptr %4
}

; Function Attrs: alwaysinline mustprogress ssp uwtable
define internal void @_ZNSt16allocator_traitsISaINSt8__detail10_Hash_nodeISt10shared_ptrIN6open3d8geometry12_GLOBAL__N_116BallPivotingEdgeEELb0EEEEE10deallocateERS9_PS8_m(ptr noundef nonnull align 1 dereferenceable(1) %0, ptr noundef %1, i64 noundef %2) #11 align 2 {
  %4 = alloca ptr, align 8
  %5 = alloca ptr, align 8
  %6 = alloca i64, align 8
  store ptr %0, ptr %4, align 8, !tbaa !410
  store ptr %1, ptr %5, align 8, !tbaa !1490
  store i64 %2, ptr %6, align 8, !tbaa !60
  %7 = load ptr, ptr %4, align 8, !tbaa !410
  %8 = load ptr, ptr %5, align 8, !tbaa !1490
  %9 = load i64, ptr %6, align 8, !tbaa !60
  call void @_ZNSt15__new_allocatorINSt8__detail10_Hash_nodeISt10shared_ptrIN6open3d8geometry12_GLOBAL__N_116BallPivotingEdgeEELb0EEEE10deallocateEPS8_m(ptr noundef nonnull align 1 dereferenceable(1) %7, ptr noundef %8, i64 noundef %9)
  ret void
}

; Function Attrs: mustprogress nounwind ssp uwtable
define internal noundef ptr @_ZNSt19__ptr_traits_ptr_toIPNSt8__detail10_Hash_nodeISt10shared_ptrIN6open3d8geometry12_GLOBAL__N_116BallPivotingEdgeEELb0EEES8_Lb0EE10pointer_toERS8_(ptr noundef nonnull align 8 dereferenceable(24) %0) #1 align 2 {
  %2 = alloca ptr, align 8
  store ptr %0, ptr %2, align 8, !tbaa !1490
  %3 = load ptr, ptr %2, align 8, !tbaa !1490
  ret ptr %3
}

; Function Attrs: alwaysinline mustprogress nounwind ssp uwtable
define internal void @_ZNSt15__new_allocatorINSt8__detail10_Hash_nodeISt10shared_ptrIN6open3d8geometry12_GLOBAL__N_116BallPivotingEdgeEELb0EEEE7destroyIS7_EEvPT_(ptr noundef nonnull align 1 dereferenceable(1) %0, ptr noundef %1) #9 align 2 {
  %3 = alloca ptr, align 8
  %4 = alloca ptr, align 8
  store ptr %0, ptr %3, align 8, !tbaa !412
  store ptr %1, ptr %4, align 8, !tbaa !416
  %5 = load ptr, ptr %4, align 8, !tbaa !416
  call void @_ZNSt12__shared_ptrIN6open3d8geometry12_GLOBAL__N_116BallPivotingEdgeELN9__gnu_cxx12_Lock_policyE2EED2Ev(ptr noundef nonnull align 8 dereferenceable(16) %5) #30
  ret void
}

; Function Attrs: mustprogress nounwind ssp uwtable
define internal noundef ptr @_ZN9__gnu_cxx16__aligned_bufferISt10shared_ptrIN6open3d8geometry12_GLOBAL__N_116BallPivotingEdgeEEE6_M_ptrEv(ptr noundef nonnull align 8 dereferenceable(16) %0) #1 align 2 {
  %2 = alloca ptr, align 8
  store ptr %0, ptr %2, align 8, !tbaa !1493
  %3 = load ptr, ptr %2, align 8
  %4 = call noundef ptr @_ZN9__gnu_cxx16__aligned_bufferISt10shared_ptrIN6open3d8geometry12_GLOBAL__N_116BallPivotingEdgeEEE7_M_addrEv(ptr noundef nonnull align 8 dereferenceable(16) %3) #30
  ret ptr %4
}

; Function Attrs: mustprogress nounwind ssp uwtable
define internal noundef nonnull align 1 dereferenceable(1) ptr @_ZNSt8__detail21_Hashtable_ebo_helperILi0ESaINS_10_Hash_nodeISt10shared_ptrIN6open3d8geometry12_GLOBAL__N_116BallPivotingEdgeEELb0EEEELb1EE6_M_getEv(ptr noundef nonnull align 1 dereferenceable(1) %0) #1 align 2 {
  %2 = alloca ptr, align 8
  store ptr %0, ptr %2, align 8, !tbaa !408
  %3 = load ptr, ptr %2, align 8
  ret ptr %3
}

; Function Attrs: mustprogress ssp uwtable
define internal void @_ZNSt8__detail16_Hashtable_allocISaINS_10_Hash_nodeISt10shared_ptrIN6open3d8geometry12_GLOBAL__N_116BallPivotingEdgeEELb0EEEEE22_M_deallocate_node_ptrEPS8_(ptr noundef nonnull align 1 dereferenceable(1) %0, ptr noundef %1) #3 align 2 {
  %3 = alloca ptr, align 8
  %4 = alloca ptr, align 8
  %5 = alloca ptr, align 8
  store ptr %0, ptr %3, align 8, !tbaa !393
  store ptr %1, ptr %4, align 8, !tbaa !1490
  %6 = load ptr, ptr %3, align 8
  call void @llvm.lifetime.start.p0(i64 8, ptr %5) #30
  %7 = load ptr, ptr %4, align 8, !tbaa !1490
  %8 = call noundef ptr @_ZNSt19__ptr_traits_ptr_toIPNSt8__detail10_Hash_nodeISt10shared_ptrIN6open3d8geometry12_GLOBAL__N_116BallPivotingEdgeEELb0EEES8_Lb0EE10pointer_toERS8_(ptr noundef nonnull align 8 dereferenceable(24) %7) #30
  store ptr %8, ptr %5, align 8, !tbaa !1490
  %9 = call noundef nonnull align 1 dereferenceable(1) ptr @_ZNSt8__detail16_Hashtable_allocISaINS_10_Hash_nodeISt10shared_ptrIN6open3d8geometry12_GLOBAL__N_116BallPivotingEdgeEELb0EEEEE17_M_node_allocatorEv(ptr noundef nonnull align 1 dereferenceable(1) %6)
  %10 = load ptr, ptr %5, align 8, !tbaa !1490
  call void @_ZNSt16allocator_traitsISaINSt8__detail10_Hash_nodeISt10shared_ptrIN6open3d8geometry12_GLOBAL__N_116BallPivotingEdgeEELb0EEEEE10deallocateERS9_PS8_m(ptr noundef nonnull align 1 dereferenceable(1) %9, ptr noundef %10, i64 noundef 1)
  call void @llvm.lifetime.end.p0(i64 8, ptr %5) #30
  ret void
}

; Function Attrs: alwaysinline mustprogress nounwind ssp uwtable
define internal void @_ZNSt16allocator_traitsISaINSt8__detail10_Hash_nodeISt10shared_ptrIN6open3d8geometry12_GLOBAL__N_116BallPivotingEdgeEELb0EEEEE7destroyIS7_EEvRS9_PT_(ptr noundef nonnull align 1 dereferenceable(1) %0, ptr noundef %1) #9 align 2 {
  %3 = alloca ptr, align 8
  %4 = alloca ptr, align 8
  store ptr %0, ptr %3, align 8, !tbaa !410
  store ptr %1, ptr %4, align 8, !tbaa !416
  %5 = load ptr, ptr %3, align 8, !tbaa !410
  %6 = load ptr, ptr %4, align 8, !tbaa !416
  call void @_ZNSt15__new_allocatorINSt8__detail10_Hash_nodeISt10shared_ptrIN6open3d8geometry12_GLOBAL__N_116BallPivotingEdgeEELb0EEEE7destroyIS7_EEvPT_(ptr noundef nonnull align 1 dereferenceable(1) %5, ptr noundef %6) #30
  ret void
}

; Function Attrs: alwaysinline mustprogress nounwind ssp uwtable
define internal noundef ptr @_ZNSt8__detail21_Hash_node_value_baseISt10shared_ptrIN6open3d8geometry12_GLOBAL__N_116BallPivotingEdgeEEE9_M_valptrEv(ptr noundef nonnull align 8 dereferenceable(16) %0) #9 align 2 {
  %2 = alloca ptr, align 8
  store ptr %0, ptr %2, align 8, !tbaa !1491
  %3 = load ptr, ptr %2, align 8
  %4 = getelementptr inbounds nuw %"struct.std::__detail::_Hash_node_value_base", ptr %3, i32 0, i32 0
  %5 = call noundef ptr @_ZN9__gnu_cxx16__aligned_bufferISt10shared_ptrIN6open3d8geometry12_GLOBAL__N_116BallPivotingEdgeEEE6_M_ptrEv(ptr noundef nonnull align 8 dereferenceable(16) %4) #30
  ret ptr %5
}

; Function Attrs: mustprogress ssp uwtable
define internal noundef nonnull align 1 dereferenceable(1) ptr @_ZNSt8__detail16_Hashtable_allocISaINS_10_Hash_nodeISt10shared_ptrIN6open3d8geometry12_GLOBAL__N_116BallPivotingEdgeEELb0EEEEE17_M_node_allocatorEv(ptr noundef nonnull align 1 dereferenceable(1) %0) #3 align 2 {
  %2 = alloca ptr, align 8
  store ptr %0, ptr %2, align 8, !tbaa !393
  %3 = load ptr, ptr %2, align 8
  %4 = call noundef nonnull align 1 dereferenceable(1) ptr @_ZNSt8__detail21_Hashtable_ebo_helperILi0ESaINS_10_Hash_nodeISt10shared_ptrIN6open3d8geometry12_GLOBAL__N_116BallPivotingEdgeEELb0EEEELb1EE6_M_getEv(ptr noundef nonnull align 1 dereferenceable(1) %3)
  ret ptr %4
}

; Function Attrs: noinline noreturn nounwind ssp uwtable
define linkonce_odr hidden void @__clang_call_terminate(ptr noundef %0) #15 comdat {
  %2 = call ptr @__cxa_begin_catch(ptr %0) #30
  call void @_ZSt9terminatev() #34
  unreachable
}

; Function Attrs: mustprogress ssp uwtable
define internal void @_ZNSt8__detail16_Hashtable_allocISaINS_10_Hash_nodeISt10shared_ptrIN6open3d8geometry12_GLOBAL__N_116BallPivotingEdgeEELb0EEEEE18_M_deallocate_nodeEPS8_(ptr noundef nonnull align 1 dereferenceable(1) %0, ptr noundef %1) #3 align 2 {
  %3 = alloca ptr, align 8
  %4 = alloca ptr, align 8
  store ptr %0, ptr %3, align 8, !tbaa !393
  store ptr %1, ptr %4, align 8, !tbaa !1490
  %5 = load ptr, ptr %3, align 8
  %6 = call noundef nonnull align 1 dereferenceable(1) ptr @_ZNSt8__detail16_Hashtable_allocISaINS_10_Hash_nodeISt10shared_ptrIN6open3d8geometry12_GLOBAL__N_116BallPivotingEdgeEELb0EEEEE17_M_node_allocatorEv(ptr noundef nonnull align 1 dereferenceable(1) %5)
  %7 = load ptr, ptr %4, align 8, !tbaa !1490
  %8 = getelementptr inbounds i8, ptr %7, i64 8
  %9 = call noundef ptr @_ZNSt8__detail21_Hash_node_value_baseISt10shared_ptrIN6open3d8geometry12_GLOBAL__N_116BallPivotingEdgeEEE9_M_valptrEv(ptr noundef nonnull align 8 dereferenceable(16) %8) #30
  call void @_ZNSt16allocator_traitsISaINSt8__detail10_Hash_nodeISt10shared_ptrIN6open3d8geometry12_GLOBAL__N_116BallPivotingEdgeEELb0EEEEE7destroyIS7_EEvRS9_PT_(ptr noundef nonnull align 1 dereferenceable(1) %6, ptr noundef %9) #30
  %10 = load ptr, ptr %4, align 8, !tbaa !1490
  call void @_ZNSt8__detail16_Hashtable_allocISaINS_10_Hash_nodeISt10shared_ptrIN6open3d8geometry12_GLOBAL__N_116BallPivotingEdgeEELb0EEEEE22_M_deallocate_node_ptrEPS8_(ptr noundef nonnull align 1 dereferenceable(1) %5, ptr noundef %10)
  ret void
}

; Function Attrs: mustprogress nounwind ssp uwtable
define internal void @_ZNSt10_HashtableISt10shared_ptrIN6open3d8geometry12_GLOBAL__N_116BallPivotingEdgeEES5_SaIS5_ENSt8__detail9_IdentityESt8equal_toIS5_ESt4hashIS5_ENS7_18_Mod_range_hashingENS7_20_Default_ranged_hashENS7_20_Prime_rehash_policyENS7_17_Hashtable_traitsILb0ELb1ELb1EEEE12_Scoped_nodeD2Ev(ptr noundef nonnull align 8 dereferenceable(16) %0) unnamed_addr #1 align 2 personality ptr @__gxx_personality_v0 {
  %2 = alloca ptr, align 8
  store ptr %0, ptr %2, align 8, !tbaa !1549
  %3 = load ptr, ptr %2, align 8
  %4 = getelementptr inbounds nuw %"struct.std::_Hashtable<std::shared_ptr<open3d::geometry::(anonymous namespace)::BallPivotingEdge>, std::shared_ptr<open3d::geometry::(anonymous namespace)::BallPivotingEdge>, std::allocator<std::shared_ptr<open3d::geometry::(anonymous namespace)::BallPivotingEdge>>, std::__detail::_Identity, std::equal_to<std::shared_ptr<open3d::geometry::(anonymous namespace)::BallPivotingEdge>>, std::hash<std::shared_ptr<open3d::geometry::(anonymous namespace)::BallPivotingEdge>>, std::__detail::_Mod_range_hashing, std::__detail::_Default_ranged_hash, std::__detail::_Prime_rehash_policy, std::__detail::_Hashtable_traits<false, true, true>>::_Scoped_node", ptr %3, i32 0, i32 1
  %5 = load ptr, ptr %4, align 8, !tbaa !1538
  %6 = icmp ne ptr %5, null
  br i1 %6, label %7, label %13

7:                                                ; preds = %1
  %8 = getelementptr inbounds nuw %"struct.std::_Hashtable<std::shared_ptr<open3d::geometry::(anonymous namespace)::BallPivotingEdge>, std::shared_ptr<open3d::geometry::(anonymous namespace)::BallPivotingEdge>, std::allocator<std::shared_ptr<open3d::geometry::(anonymous namespace)::BallPivotingEdge>>, std::__detail::_Identity, std::equal_to<std::shared_ptr<open3d::geometry::(anonymous namespace)::BallPivotingEdge>>, std::hash<std::shared_ptr<open3d::geometry::(anonymous namespace)::BallPivotingEdge>>, std::__detail::_Mod_range_hashing, std::__detail::_Default_ranged_hash, std::__detail::_Prime_rehash_policy, std::__detail::_Hashtable_traits<false, true, true>>::_Scoped_node", ptr %3, i32 0, i32 0
  %9 = load ptr, ptr %8, align 8, !tbaa !1551
  %10 = getelementptr inbounds nuw %"struct.std::_Hashtable<std::shared_ptr<open3d::geometry::(anonymous namespace)::BallPivotingEdge>, std::shared_ptr<open3d::geometry::(anonymous namespace)::BallPivotingEdge>, std::allocator<std::shared_ptr<open3d::geometry::(anonymous namespace)::BallPivotingEdge>>, std::__detail::_Identity, std::equal_to<std::shared_ptr<open3d::geometry::(anonymous namespace)::BallPivotingEdge>>, std::hash<std::shared_ptr<open3d::geometry::(anonymous namespace)::BallPivotingEdge>>, std::__detail::_Mod_range_hashing, std::__detail::_Default_ranged_hash, std::__detail::_Prime_rehash_policy, std::__detail::_Hashtable_traits<false, true, true>>::_Scoped_node", ptr %3, i32 0, i32 1
  %11 = load ptr, ptr %10, align 8, !tbaa !1538
  invoke void @_ZNSt8__detail16_Hashtable_allocISaINS_10_Hash_nodeISt10shared_ptrIN6open3d8geometry12_GLOBAL__N_116BallPivotingEdgeEELb0EEEEE18_M_deallocate_nodeEPS8_(ptr noundef nonnull align 1 dereferenceable(1) %9, ptr noundef %11)
          to label %12 unwind label %14

12:                                               ; preds = %7
  br label %13

13:                                               ; preds = %12, %1
  ret void

14:                                               ; preds = %7
  %15 = landingpad { ptr, i32 }
          catch ptr null
  %16 = extractvalue { ptr, i32 } %15, 0
  call void @__clang_call_terminate(ptr %16) #34
  unreachable
}