; Function Attrs: mustprogress nounwind ssp uwtable
define internal fastcc void @_ZNSt10_HashtableISt10shared_ptrIN6open3d8geometry12_GLOBAL__N_116BallPivotingEdgeEES5_SaIS5_ENSt8__detail9_IdentityESt8equal_toIS5_ESt4hashIS5_ENS7_18_Mod_range_hashingENS7_20_Default_ranged_hashENS7_20_Prime_rehash_policyENS7_17_Hashtable_traitsILb0ELb1ELb1EEEE12_Scoped_nodeD2Ev(ptr %.8.val) unnamed_addr #2 align 2 personality ptr @__gxx_personality_v0 {
  %.not = icmp eq ptr %.8.val, null
  br i1 %.not, label %24, label %1

1:                                                ; preds = %0
  %2 = getelementptr i8, ptr %.8.val, i64 16
  %.val.i = load ptr, ptr %2, align 8, !tbaa !67
  %.not.i.i.i = icmp eq ptr %.val.i, null
  br i1 %.not.i.i.i, label %_ZNSt8__detail16_Hashtable_allocISaINS_10_Hash_nodeISt10shared_ptrIN6open3d8geometry12_GLOBAL__N_116BallPivotingEdgeEELb0EEEEE18_M_deallocate_nodeEPS8_.exit, label %3

3:                                                ; preds = %1
  %4 = getelementptr inbounds nuw i8, ptr %.val.i, i64 8
  %5 = load atomic i64, ptr %4 acquire, align 8
  %6 = icmp eq i64 %5, 4294967297
  %7 = trunc i64 %5 to i32
  br i1 %6, label %8, label %16

8:                                                ; preds = %3
  store i32 0, ptr %4, align 8, !tbaa !49
  %9 = getelementptr inbounds nuw i8, ptr %.val.i, i64 12
  store i32 0, ptr %9, align 4, !tbaa !55
  %10 = load ptr, ptr %.val.i, align 8, !tbaa !4
  %11 = getelementptr inbounds nuw i8, ptr %10, i64 16
  %12 = load ptr, ptr %11, align 8
  tail call void %12(ptr noundef nonnull align 8 dereferenceable(16) %.val.i) #33
  %13 = load ptr, ptr %.val.i, align 8, !tbaa !4
  %14 = getelementptr inbounds nuw i8, ptr %13, i64 24
  %15 = load ptr, ptr %14, align 8
  tail call void %15(ptr noundef nonnull align 8 dereferenceable(16) %.val.i) #33
  br label %_ZNSt8__detail16_Hashtable_allocISaINS_10_Hash_nodeISt10shared_ptrIN6open3d8geometry12_GLOBAL__N_116BallPivotingEdgeEELb0EEEEE18_M_deallocate_nodeEPS8_.exit

16:                                               ; preds = %3
  %17 = load i8, ptr @__libc_single_threaded, align 1, !tbaa !65
  %.not.i.i.i.i = icmp eq i8 %17, 0
  br i1 %.not.i.i.i.i, label %20, label %18

18:                                               ; preds = %16
  %19 = add nsw i32 %7, -1
  store i32 %19, ptr %4, align 4, !tbaa !98
  br label %_ZN9__gnu_cxx27__exchange_and_add_dispatchEPii.exit.i.i.i.i

20:                                               ; preds = %16
  %21 = atomicrmw volatile add ptr %4, i32 -1 acq_rel, align 4
  br label %_ZN9__gnu_cxx27__exchange_and_add_dispatchEPii.exit.i.i.i.i

_ZN9__gnu_cxx27__exchange_and_add_dispatchEPii.exit.i.i.i.i: ; preds = %20, %18
  %.0.i.i.i.i.i = phi i32 [ %7, %18 ], [ %21, %20 ]
  %22 = icmp eq i32 %.0.i.i.i.i.i, 1
  br i1 %22, label %23, label %_ZNSt8__detail16_Hashtable_allocISaINS_10_Hash_nodeISt10shared_ptrIN6open3d8geometry12_GLOBAL__N_116BallPivotingEdgeEELb0EEEEE18_M_deallocate_nodeEPS8_.exit, !prof !156

23:                                               ; preds = %_ZN9__gnu_cxx27__exchange_and_add_dispatchEPii.exit.i.i.i.i
  tail call void @_ZNSt16_Sp_counted_baseILN9__gnu_cxx12_Lock_policyE2EE24_M_release_last_use_coldEv(ptr noundef nonnull align 8 dereferenceable(16) %.val.i) #33
  br label %_ZNSt8__detail16_Hashtable_allocISaINS_10_Hash_nodeISt10shared_ptrIN6open3d8geometry12_GLOBAL__N_116BallPivotingEdgeEELb0EEEEE18_M_deallocate_nodeEPS8_.exit

_ZNSt8__detail16_Hashtable_allocISaINS_10_Hash_nodeISt10shared_ptrIN6open3d8geometry12_GLOBAL__N_116BallPivotingEdgeEELb0EEEEE18_M_deallocate_nodeEPS8_.exit: ; preds = %1, %8, %_ZN9__gnu_cxx27__exchange_and_add_dispatchEPii.exit.i.i.i.i, %23
  tail call void @_ZdlPvm(ptr noundef nonnull %.8.val, i64 noundef 24) #36
  br label %24

24:                                               ; preds = %_ZNSt8__detail16_Hashtable_allocISaINS_10_Hash_nodeISt10shared_ptrIN6open3d8geometry12_GLOBAL__N_116BallPivotingEdgeEELb0EEEEE18_M_deallocate_nodeEPS8_.exit, %0
  ret void
}